target datalayout = "e-m:e-p270:32:32-p271:32:32-p272:64:64-i64:64-i128:128-f80:128-n8:16:32:64-S128"
target triple = "x86_64-pc-linux-gnu"

%struct.ASN1_ENCODING_st = type { ptr, i64, i32 }
%struct.X509_algor_st = type { ptr, ptr }
%struct.asn1_string_st = type { i32, i32, ptr, i64 }
%struct.CRYPTO_REF_COUNT = type { i32 }
%struct.X509_req_st = type { %struct.X509_req_info_st, %struct.X509_algor_st, ptr, %struct.CRYPTO_REF_COUNT, ptr, ptr, ptr, ptr }
%struct.X509_req_info_st = type { %struct.ASN1_ENCODING_st, ptr, ptr, ptr, ptr }
%struct.asn1_type_st = type { i32, %union.anon }
%union.anon = type { ptr }

@.str = private unnamed_addr constant [34 x i8] c"../openssl/crypto/x509/x509_req.c\00", align 1
@__func__.get_extensions_by_nid = private unnamed_addr constant [22 x i8] c"get_extensions_by_nid\00", align 1

; Function Attrs: nounwind uwtable
define ptr @X509_REQ_get_attr(ptr noundef %0, i32 noundef %1) #0 {
  %3 = alloca ptr, align 8
  %4 = alloca i32, align 4
  store ptr %0, ptr %3, align 8, !tbaa !42
  store i32 %1, ptr %4, align 4, !tbaa !52
  %5 = load ptr, ptr %3, align 8, !tbaa !42
  %6 = getelementptr inbounds nuw %struct.X509_req_st, ptr %5, i32 0, i32 0
  %7 = getelementptr inbounds nuw %struct.X509_req_info_st, ptr %6, i32 0, i32 4
  %8 = load ptr, ptr %7, align 8, !tbaa !66
  %9 = load i32, ptr %4, align 4, !tbaa !52
  %10 = call ptr @X509at_get_attr(ptr noundef %8, i32 noundef %9)
  ret ptr %10
}

; Function Attrs: nounwind uwtable
define i32 @X509_REQ_get_attr_by_NID(ptr noundef %0, i32 noundef %1, i32 noundef %2) #0 {
  %4 = alloca ptr, align 8
  %5 = alloca i32, align 4
  %6 = alloca i32, align 4
  store ptr %0, ptr %4, align 8, !tbaa !42
  store i32 %1, ptr %5, align 4, !tbaa !52
  store i32 %2, ptr %6, align 4, !tbaa !52
  %7 = load ptr, ptr %4, align 8, !tbaa !42
  %8 = getelementptr inbounds nuw %struct.X509_req_st, ptr %7, i32 0, i32 0
  %9 = getelementptr inbounds nuw %struct.X509_req_info_st, ptr %8, i32 0, i32 4
  %10 = load ptr, ptr %9, align 8, !tbaa !66
  %11 = load i32, ptr %5, align 4, !tbaa !52
  %12 = load i32, ptr %6, align 4, !tbaa !52
  %13 = call i32 @X509at_get_attr_by_NID(ptr noundef %10, i32 noundef %11, i32 noundef %12)
  ret i32 %13
}

; Function Attrs: nounwind uwtable
define internal ptr @get_extensions_by_nid(ptr noundef %0, i32 noundef %1) #0 {
  %3 = alloca ptr, align 8
  %4 = alloca ptr, align 8
  %5 = alloca i32, align 4
  %6 = alloca ptr, align 8
  %7 = alloca ptr, align 8
  %8 = alloca ptr, align 8
  %9 = alloca i32, align 4
  %10 = alloca i32, align 4
  store ptr %0, ptr %4, align 8, !tbaa !42
  store i32 %1, ptr %5, align 4, !tbaa !52
  call void @llvm.lifetime.start.p0(i64 8, ptr %6) #4
  call void @llvm.lifetime.start.p0(i64 8, ptr %7) #4
  store ptr null, ptr %7, align 8, !tbaa !60
  call void @llvm.lifetime.start.p0(i64 8, ptr %8) #4
  call void @llvm.lifetime.start.p0(i64 4, ptr %9) #4
  %11 = load ptr, ptr %4, align 8, !tbaa !42
  %12 = load i32, ptr %5, align 4, !tbaa !52
  %13 = call i32 @X509_REQ_get_attr_by_NID(ptr noundef %11, i32 noundef %12, i32 noundef -1)
  store i32 %13, ptr %9, align 4, !tbaa !52
  %14 = load i32, ptr %9, align 4, !tbaa !52
  %15 = icmp slt i32 %14, 0
  br i1 %15, label %16, label %18

16:                                               ; preds = %2
  %17 = call ptr @OPENSSL_sk_new_null()
  store ptr %17, ptr %3, align 8
  store i32 1, ptr %10, align 4
  br label %46

18:                                               ; preds = %2
  %19 = load ptr, ptr %4, align 8, !tbaa !42
  %20 = load i32, ptr %9, align 4, !tbaa !52
  %21 = call ptr @X509_REQ_get_attr(ptr noundef %19, i32 noundef %20)
  store ptr %21, ptr %6, align 8, !tbaa !61
  %22 = load ptr, ptr %6, align 8, !tbaa !61
  %23 = call ptr @X509_ATTRIBUTE_get0_type(ptr noundef %22, i32 noundef 0)
  store ptr %23, ptr %7, align 8, !tbaa !60
  %24 = load ptr, ptr %7, align 8, !tbaa !60
  %25 = icmp eq ptr %24, null
  br i1 %25, label %31, label %26

26:                                               ; preds = %18
  %27 = load ptr, ptr %7, align 8, !tbaa !60
  %28 = getelementptr inbounds nuw %struct.asn1_type_st, ptr %27, i32 0, i32 0
  %29 = load i32, ptr %28, align 8, !tbaa !63
  %30 = icmp ne i32 %29, 16
  br i1 %30, label %31, label %32

31:                                               ; preds = %26, %18
  call void @ERR_new()
  call void @ERR_set_debug(ptr noundef @.str, i32 noundef 133, ptr noundef @__func__.get_extensions_by_nid)
  call void (i32, i32, ptr, ...) @ERR_set_error(i32 noundef 11, i32 noundef 122, ptr noundef null)
  store ptr null, ptr %3, align 8
  store i32 1, ptr %10, align 4
  br label %46

32:                                               ; preds = %26
  %33 = load ptr, ptr %7, align 8, !tbaa !60
  %34 = getelementptr inbounds nuw %struct.asn1_type_st, ptr %33, i32 0, i32 1
  %35 = load ptr, ptr %34, align 8, !tbaa !51
  %36 = getelementptr inbounds nuw %struct.asn1_string_st, ptr %35, i32 0, i32 2
  %37 = load ptr, ptr %36, align 8, !tbaa !50
  store ptr %37, ptr %8, align 8, !tbaa !65
  %38 = load ptr, ptr %7, align 8, !tbaa !60
  %39 = getelementptr inbounds nuw %struct.asn1_type_st, ptr %38, i32 0, i32 1
  %40 = load ptr, ptr %39, align 8, !tbaa !51
  %41 = getelementptr inbounds nuw %struct.asn1_string_st, ptr %40, i32 0, i32 0
  %42 = load i32, ptr %41, align 8, !tbaa !49
  %43 = sext i32 %42 to i64
  %44 = call ptr @X509_EXTENSIONS_it()
  %45 = call ptr @ASN1_item_d2i(ptr noundef null, ptr noundef %8, i64 noundef %43, ptr noundef %44)
  store ptr %45, ptr %3, align 8
  store i32 1, ptr %10, align 4
  br label %46

46:                                               ; preds = %32, %31, %16
  call void @llvm.lifetime.end.p0(i64 4, ptr %9) #4
  call void @llvm.lifetime.end.p0(i64 8, ptr %8) #4
  call void @llvm.lifetime.end.p0(i64 8, ptr %7) #4
  call void @llvm.lifetime.end.p0(i64 8, ptr %6) #4
  %47 = load ptr, ptr %3, align 8
  ret ptr %47
}