; Function Attrs: nounwind uwtable
define internal fastcc ptr @get_extensions_by_nid(ptr noundef readonly captures(none) %0, i32 noundef %1) unnamed_addr #0 {
  %3 = alloca ptr, align 8
  call void @llvm.lifetime.start.p0(i64 8, ptr nonnull %3) #8
  %4 = getelementptr inbounds nuw i8, ptr %0, i64 48
  %5 = load ptr, ptr %4, align 8, !tbaa !49
  %6 = tail call i32 @X509at_get_attr_by_NID(ptr noundef %5, i32 noundef %1, i32 noundef -1) #8
  %7 = icmp slt i32 %6, 0
  br i1 %7, label %8, label %10

8:                                                ; preds = %2
  %9 = tail call ptr @OPENSSL_sk_new_null() #8
  br label %27

10:                                               ; preds = %2
  %11 = load ptr, ptr %4, align 8, !tbaa !49
  %12 = tail call ptr @X509at_get_attr(ptr noundef %11, i32 noundef %6) #8
  %13 = tail call ptr @X509_ATTRIBUTE_get0_type(ptr noundef %12, i32 noundef 0) #8
  %14 = icmp eq ptr %13, null
  br i1 %14, label %17, label %15

15:                                               ; preds = %10
  %16 = load i32, ptr %13, align 8, !tbaa !50
  %.not = icmp eq i32 %16, 16
  br i1 %.not, label %18, label %17

17:                                               ; preds = %15, %10
  tail call void @ERR_new() #8
  tail call void @ERR_set_debug(ptr noundef nonnull @.str, i32 noundef 133, ptr noundef nonnull @__func__.get_extensions_by_nid) #8
  tail call void (i32, i32, ptr, ...) @ERR_set_error(i32 noundef 11, i32 noundef 122, ptr noundef null) #8
  br label %27

18:                                               ; preds = %15
  %19 = getelementptr inbounds nuw i8, ptr %13, i64 8
  %20 = load ptr, ptr %19, align 8, !tbaa !41
  %21 = getelementptr inbounds nuw i8, ptr %20, i64 8
  %22 = load ptr, ptr %21, align 8, !tbaa !40
  store ptr %22, ptr %3, align 8, !tbaa !52
  %23 = load i32, ptr %20, align 8, !tbaa !39
  %24 = sext i32 %23 to i64
  %25 = tail call ptr @X509_EXTENSIONS_it() #8
  %26 = call ptr @ASN1_item_d2i(ptr noundef null, ptr noundef nonnull %3, i64 noundef %24, ptr noundef %25) #8
  br label %27

27:                                               ; preds = %18, %17, %8
  %.0 = phi ptr [ %9, %8 ], [ null, %17 ], [ %26, %18 ]
  call void @llvm.lifetime.end.p0(i64 8, ptr nonnull %3) #8
  ret ptr %.0
}